target datalayout = "e-m:e-p270:32:32-p271:32:32-p272:64:64-i64:64-i128:128-f80:128-n8:16:32:64-S128"
target triple = "x86_64-pc-linux-gnu"

%class.symbol = type { ptr }
%struct.parallel_params = type { ptr, %class.params_ref }
%class.params_ref = type { ptr }

@_ZN6symbol4nullE = external global %class.symbol, align 8
@.str = private unnamed_addr constant [12 x i8] c"auto_config\00", align 1
@.str.1 = private unnamed_addr constant [9 x i8] c"parallel\00", align 1
@.str.2 = private unnamed_addr constant [7 x i8] c"enable\00", align 1

; Function Attrs: inlinehint mustprogress nounwind uwtable
define linkonce_odr hidden void @_ZN15parallel_paramsD2Ev(ptr noundef nonnull align 8 dereferenceable(16) %0) unnamed_addr #6 comdat align 2 {
  %2 = alloca ptr, align 8
  store ptr %0, ptr %2, align 8, !tbaa !12
  %3 = load ptr, ptr %2, align 8
  %4 = getelementptr inbounds nuw %struct.parallel_params, ptr %3, i32 0, i32 1
  call void @_ZN10params_refD1Ev(ptr noundef nonnull align 8 dereferenceable(8) %4) #3
  ret void
}

; Function Attrs: mustprogress uwtable
define internal noundef ptr @_ZL17mk_seq_smt_tacticR11ast_managerRK10params_ref(ptr noundef nonnull align 8 dereferenceable(976) %0, ptr noundef nonnull align 8 dereferenceable(8) %1) #4 {
  %3 = alloca ptr, align 8
  %4 = alloca ptr, align 8
  store ptr %0, ptr %3, align 8, !tbaa !3
  store ptr %1, ptr %4, align 8, !tbaa !8
  %5 = call noalias noundef ptr @_ZN6memory8allocateEm(i64 noundef 1248)
  %6 = load ptr, ptr %3, align 8, !tbaa !3
  %7 = load ptr, ptr %4, align 8, !tbaa !8
  call void @_ZN10smt_tacticC2ER11ast_managerRK10params_ref(ptr noundef nonnull align 8 dereferenceable(1248) %5, ptr noundef nonnull align 8 dereferenceable(976) %6, ptr noundef nonnull align 8 dereferenceable(8) %7)
  ret ptr %5
}

; Function Attrs: mustprogress uwtable
define hidden noundef ptr @_Z22mk_parallel_smt_tacticR11ast_managerRK10params_ref(ptr noundef nonnull align 8 dereferenceable(976) %0, ptr noundef nonnull align 8 dereferenceable(8) %1) #4 {
  %3 = alloca ptr, align 8
  %4 = alloca ptr, align 8
  store ptr %0, ptr %3, align 8, !tbaa !3
  store ptr %1, ptr %4, align 8, !tbaa !8
  %5 = load ptr, ptr %3, align 8, !tbaa !3
  %6 = load ptr, ptr %4, align 8, !tbaa !8
  %7 = call noundef ptr @_Z13mk_smt_solverR11ast_managerRK10params_refRK6symbol(ptr noundef nonnull align 8 dereferenceable(976) %5, ptr noundef nonnull align 8 dereferenceable(8) %6, ptr noundef nonnull align 8 dereferenceable(8) @_ZN6symbol4nullE)
  %8 = load ptr, ptr %4, align 8, !tbaa !8
  %9 = call noundef ptr @_Z18mk_parallel_tacticP6solverRK10params_ref(ptr noundef %7, ptr noundef nonnull align 8 dereferenceable(8) %8)
  ret ptr %9
}

; Function Attrs: mustprogress uwtable
define linkonce_odr hidden noundef zeroext i1 @_ZNK15parallel_params6enableEv(ptr noundef nonnull align 8 dereferenceable(16) %0) #4 comdat align 2 {
  %2 = alloca ptr, align 8
  store ptr %0, ptr %2, align 8, !tbaa !12
  %3 = load ptr, ptr %2, align 8
  %4 = getelementptr inbounds nuw %struct.parallel_params, ptr %3, i32 0, i32 0
  %5 = load ptr, ptr %4, align 8, !tbaa !14
  %6 = getelementptr inbounds nuw %struct.parallel_params, ptr %3, i32 0, i32 1
  %7 = call noundef zeroext i1 @_ZNK10params_ref8get_boolEPKcRKS_b(ptr noundef nonnull align 8 dereferenceable(8) %5, ptr noundef @.str.2, ptr noundef nonnull align 8 dereferenceable(8) %6, i1 noundef zeroext false)
  ret i1 %7
}

; Function Attrs: mustprogress uwtable
define linkonce_odr hidden void @_ZN15parallel_paramsC2ERK10params_ref(ptr noundef nonnull align 8 dereferenceable(16) %0, ptr noundef nonnull align 8 dereferenceable(8) %1) unnamed_addr #4 comdat align 2 {
  %3 = alloca ptr, align 8
  %4 = alloca ptr, align 8
  store ptr %0, ptr %3, align 8, !tbaa !12
  store ptr %1, ptr %4, align 8, !tbaa !8
  %5 = load ptr, ptr %3, align 8
  %6 = getelementptr inbounds nuw %struct.parallel_params, ptr %5, i32 0, i32 0
  %7 = load ptr, ptr %4, align 8, !tbaa !8
  store ptr %7, ptr %6, align 8, !tbaa !8
  %8 = getelementptr inbounds nuw %struct.parallel_params, ptr %5, i32 0, i32 1
  call void @_ZN7gparams10get_moduleEPKc(ptr dead_on_unwind writable sret(%class.params_ref) align 8 %8, ptr noundef @.str.1)
  ret void
}

; Function Attrs: mustprogress uwtable
define hidden noundef ptr @_Z24mk_smt_tactic_core_usingR11ast_managerbRK10params_ref(ptr noundef nonnull align 8 dereferenceable(976) %0, i1 noundef zeroext %1, ptr noundef nonnull align 8 dereferenceable(8) %2) #4 personality ptr @__gxx_personality_v0 {
  %4 = alloca ptr, align 8
  %5 = alloca i8, align 1
  %6 = alloca ptr, align 8
  %7 = alloca %struct.parallel_params, align 8
  %8 = alloca %class.params_ref, align 8
  %9 = alloca ptr, align 8
  %10 = alloca i32, align 4
  store ptr %0, ptr %4, align 8, !tbaa !3
  %11 = zext i1 %1 to i8
  store i8 %11, ptr %5, align 1, !tbaa !18
  store ptr %2, ptr %6, align 8, !tbaa !8
  call void @llvm.lifetime.start.p0(i64 16, ptr %7) #3
  %12 = load ptr, ptr %6, align 8, !tbaa !8
  call void @_ZN15parallel_paramsC2ERK10params_ref(ptr noundef nonnull align 8 dereferenceable(16) %7, ptr noundef nonnull align 8 dereferenceable(8) %12)
  call void @llvm.lifetime.start.p0(i64 8, ptr %8) #3
  %13 = load ptr, ptr %6, align 8, !tbaa !8
  invoke void @_ZN10params_refC1ERKS_(ptr noundef nonnull align 8 dereferenceable(8) %8, ptr noundef nonnull align 8 dereferenceable(8) %13)
          to label %14 unwind label %32

14:                                               ; preds = %3
  %15 = load i8, ptr %5, align 1, !tbaa !18, !range !20, !noundef !21
  %16 = trunc i8 %15 to i1
  invoke void @_ZN10params_ref8set_boolEPKcb(ptr noundef nonnull align 8 dereferenceable(8) %8, ptr noundef @.str, i1 noundef zeroext %16)
          to label %17 unwind label %36

17:                                               ; preds = %14
  %18 = invoke noundef zeroext i1 @_ZNK15parallel_params6enableEv(ptr noundef nonnull align 8 dereferenceable(16) %7)
          to label %19 unwind label %36

19:                                               ; preds = %17
  br i1 %18, label %20, label %24

20:                                               ; preds = %19
  %21 = load ptr, ptr %4, align 8, !tbaa !3
  %22 = invoke noundef ptr @_Z22mk_parallel_smt_tacticR11ast_managerRK10params_ref(ptr noundef nonnull align 8 dereferenceable(976) %21, ptr noundef nonnull align 8 dereferenceable(8) %8)
          to label %23 unwind label %36

23:                                               ; preds = %20
  br label %28

24:                                               ; preds = %19
  %25 = load ptr, ptr %4, align 8, !tbaa !3
  %26 = invoke noundef ptr @_ZL17mk_seq_smt_tacticR11ast_managerRK10params_ref(ptr noundef nonnull align 8 dereferenceable(976) %25, ptr noundef nonnull align 8 dereferenceable(8) %8)
          to label %27 unwind label %36

27:                                               ; preds = %24
  br label %28

28:                                               ; preds = %27, %23
  %29 = phi ptr [ %22, %23 ], [ %26, %27 ]
  %30 = invoke noundef ptr @_Z12using_paramsP6tacticRK10params_ref(ptr noundef %29, ptr noundef nonnull align 8 dereferenceable(8) %8)
          to label %31 unwind label %36

31:                                               ; preds = %28
  call void @_ZN10params_refD1Ev(ptr noundef nonnull align 8 dereferenceable(8) %8) #3
  call void @llvm.lifetime.end.p0(i64 8, ptr %8) #3
  call void @_ZN15parallel_paramsD2Ev(ptr noundef nonnull align 8 dereferenceable(16) %7) #3
  call void @llvm.lifetime.end.p0(i64 16, ptr %7) #3
  ret ptr %30

32:                                               ; preds = %3
  %33 = landingpad { ptr, i32 }
          cleanup
  %34 = extractvalue { ptr, i32 } %33, 0
  store ptr %34, ptr %9, align 8
  %35 = extractvalue { ptr, i32 } %33, 1
  store i32 %35, ptr %10, align 4
  br label %40

36:                                               ; preds = %28, %24, %20, %17, %14
  %37 = landingpad { ptr, i32 }
          cleanup
  %38 = extractvalue { ptr, i32 } %37, 0
  store ptr %38, ptr %9, align 8
  %39 = extractvalue { ptr, i32 } %37, 1
  store i32 %39, ptr %10, align 4
  call void @_ZN10params_refD1Ev(ptr noundef nonnull align 8 dereferenceable(8) %8) #3
  br label %40

40:                                               ; preds = %36, %32
  call void @llvm.lifetime.end.p0(i64 8, ptr %8) #3
  call void @_ZN15parallel_paramsD2Ev(ptr noundef nonnull align 8 dereferenceable(16) %7) #3
  call void @llvm.lifetime.end.p0(i64 16, ptr %7) #3
  br label %41

41:                                               ; preds = %40
  %42 = load ptr, ptr %9, align 8
  %43 = load i32, ptr %10, align 4
  %44 = insertvalue { ptr, i32 } poison, ptr %42, 0
  %45 = insertvalue { ptr, i32 } %44, i32 %43, 1
  resume { ptr, i32 } %45
}