; Function Attrs: mustprogress uwtable
define hidden noundef ptr @_Z24mk_smt_tactic_core_usingR11ast_managerbRK10params_ref(ptr noundef nonnull align 8 dereferenceable(976) %0, i1 noundef zeroext %1, ptr noundef nonnull align 8 dereferenceable(8) %2) local_unnamed_addr #3 personality ptr @__gxx_personality_v0 {
  %4 = alloca %struct.parallel_params, align 8
  %5 = alloca %class.params_ref, align 8
  call void @llvm.lifetime.start.p0(i64 16, ptr nonnull %4) #20
  store ptr %2, ptr %4, align 8, !tbaa !3
  %6 = getelementptr inbounds nuw i8, ptr %4, i64 8
  call void @_ZN7gparams10get_moduleEPKc(ptr dead_on_unwind nonnull writable sret(%class.params_ref) align 8 %6, ptr noundef nonnull @.str.1)
  call void @llvm.lifetime.start.p0(i64 8, ptr nonnull %5) #20
  invoke void @_ZN10params_refC1ERKS_(ptr noundef nonnull align 8 dereferenceable(8) %5, ptr noundef nonnull align 8 dereferenceable(8) %2)
          to label %7 unwind label %19

7:                                                ; preds = %3
  invoke void @_ZN10params_ref8set_boolEPKcb(ptr noundef nonnull align 8 dereferenceable(8) %5, ptr noundef nonnull @.str, i1 noundef zeroext %1)
          to label %8 unwind label %21

8:                                                ; preds = %7
  %9 = load ptr, ptr %4, align 8, !tbaa !8
  %10 = invoke noundef zeroext i1 @_ZNK10params_ref8get_boolEPKcRKS_b(ptr noundef nonnull align 8 dereferenceable(8) %9, ptr noundef nonnull @.str.2, ptr noundef nonnull align 8 dereferenceable(8) %6, i1 noundef zeroext false)
          to label %_ZNK15parallel_params6enableEv.exit unwind label %21

_ZNK15parallel_params6enableEv.exit:              ; preds = %8
  br i1 %10, label %11, label %14

11:                                               ; preds = %_ZNK15parallel_params6enableEv.exit
  %12 = invoke noundef ptr @_Z13mk_smt_solverR11ast_managerRK10params_refRK6symbol(ptr noundef nonnull align 8 dereferenceable(976) %0, ptr noundef nonnull align 8 dereferenceable(8) %5, ptr noundef nonnull align 8 dereferenceable(8) @_ZN6symbol4nullE)
          to label %.noexc unwind label %21

.noexc:                                           ; preds = %11
  %13 = invoke noundef ptr @_Z18mk_parallel_tacticP6solverRK10params_ref(ptr noundef %12, ptr noundef nonnull align 8 dereferenceable(8) %5)
          to label %_Z22mk_parallel_smt_tacticR11ast_managerRK10params_ref.exit unwind label %21

14:                                               ; preds = %_ZNK15parallel_params6enableEv.exit
  %15 = invoke noalias noundef ptr @_ZN6memory8allocateEm(i64 noundef 1248)
          to label %.noexc9 unwind label %21

.noexc9:                                          ; preds = %14
  invoke void @_ZN10smt_tacticC2ER11ast_managerRK10params_ref(ptr noundef nonnull align 8 dereferenceable(1248) %15, ptr noundef nonnull align 8 dereferenceable(976) %0, ptr noundef nonnull align 8 dereferenceable(8) %5)
          to label %_Z22mk_parallel_smt_tacticR11ast_managerRK10params_ref.exit unwind label %21

_Z22mk_parallel_smt_tacticR11ast_managerRK10params_ref.exit: ; preds = %.noexc9, %.noexc
  %16 = phi ptr [ %13, %.noexc ], [ %15, %.noexc9 ]
  %17 = invoke noundef ptr @_Z12using_paramsP6tacticRK10params_ref(ptr noundef %16, ptr noundef nonnull align 8 dereferenceable(8) %5)
          to label %18 unwind label %21

18:                                               ; preds = %_Z22mk_parallel_smt_tacticR11ast_managerRK10params_ref.exit
  call void @_ZN10params_refD1Ev(ptr noundef nonnull align 8 dereferenceable(8) %5) #20
  call void @llvm.lifetime.end.p0(i64 8, ptr nonnull %5) #20
  call void @_ZN10params_refD1Ev(ptr noundef nonnull align 8 dereferenceable(8) %6) #20
  call void @llvm.lifetime.end.p0(i64 16, ptr nonnull %4) #20
  ret ptr %17

19:                                               ; preds = %3
  %20 = landingpad { ptr, i32 }
          cleanup
  br label %23

21:                                               ; preds = %.noexc9, %14, %.noexc, %11, %8, %_Z22mk_parallel_smt_tacticR11ast_managerRK10params_ref.exit, %7
  %22 = landingpad { ptr, i32 }
          cleanup
  call void @_ZN10params_refD1Ev(ptr noundef nonnull align 8 dereferenceable(8) %5) #20
  br label %23

23:                                               ; preds = %21, %19
  %.pn = phi { ptr, i32 } [ %22, %21 ], [ %20, %19 ]
  call void @llvm.lifetime.end.p0(i64 8, ptr nonnull %5) #20
  call void @_ZN10params_refD1Ev(ptr noundef nonnull align 8 dereferenceable(8) %6) #20
  call void @llvm.lifetime.end.p0(i64 16, ptr nonnull %4) #20
  resume { ptr, i32 } %.pn
}